target datalayout = "e-m:e-p270:32:32-p271:32:32-p272:64:64-i64:64-i128:128-f80:128-n8:16:32:64-S128"
target triple = "x86_64-unknown-linux-gnu"

%"struct.node::crypto::PBKDF2Config" = type { %"class.node::MemoryRetainer", i32, %"class.node::crypto::ByteSource", %"class.node::crypto::ByteSource", i32, i32, ptr }
%"class.node::MemoryRetainer" = type { ptr }
%"class.node::crypto::ByteSource" = type { ptr, ptr, i64 }

@_ZN4node6crypto12PBKDF2ConfigC1EOS1_ = dso_local unnamed_addr alias void (ptr, ptr), ptr @_ZN4node6crypto12PBKDF2ConfigC2EOS1_

; Function Attrs: mustprogress nounwind uwtable
define linkonce_odr dso_local void @_ZN4node14MemoryRetainerD2Ev(ptr noundef nonnull align 8 dereferenceable(8) %this) unnamed_addr #4 comdat align 2 {
entry:
  %this.addr = alloca ptr, align 8
  store ptr %this, ptr %this.addr, align 8
  ret void
}

; Function Attrs: mustprogress nounwind uwtable
define linkonce_odr dso_local void @_ZN4node6crypto12PBKDF2ConfigD2Ev(ptr noundef nonnull align 8 dereferenceable(80) %this) unnamed_addr #4 comdat align 2 {
entry:
  %this.addr = alloca ptr, align 8
  store ptr %this, ptr %this.addr, align 8
  %this1 = load ptr, ptr %this.addr, align 8
  %salt = getelementptr inbounds %"struct.node::crypto::PBKDF2Config", ptr %this1, i32 0, i32 3
  call void @_ZN4node6crypto10ByteSourceD1Ev(ptr noundef nonnull align 8 dereferenceable(24) %salt) #3
  %pass = getelementptr inbounds %"struct.node::crypto::PBKDF2Config", ptr %this1, i32 0, i32 2
  call void @_ZN4node6crypto10ByteSourceD1Ev(ptr noundef nonnull align 8 dereferenceable(24) %pass) #3
  call void @_ZN4node14MemoryRetainerD2Ev(ptr noundef nonnull align 8 dereferenceable(8) %this1) #3
  ret void
}

; Function Attrs: mustprogress nounwind uwtable
define dso_local noundef nonnull align 8 dereferenceable(80) ptr @_ZN4node6crypto12PBKDF2ConfigaSEOS1_(ptr noundef nonnull align 8 dereferenceable(80) %this, ptr noundef nonnull align 8 dereferenceable(80) %other) #4 align 2 {
entry:
  %retval = alloca ptr, align 8
  %this.addr = alloca ptr, align 8
  %other.addr = alloca ptr, align 8
  store ptr %this, ptr %this.addr, align 8
  store ptr %other, ptr %other.addr, align 8
  %this1 = load ptr, ptr %this.addr, align 8
  %0 = load ptr, ptr %other.addr, align 8
  %cmp = icmp eq ptr %0, %this1
  br i1 %cmp, label %if.then, label %if.end

if.then:                                          ; preds = %entry
  store ptr %this1, ptr %retval, align 8
  br label %return

if.end:                                           ; preds = %entry
  call void @_ZN4node6crypto12PBKDF2ConfigD2Ev(ptr noundef nonnull align 8 dereferenceable(80) %this1) #3
  %1 = load ptr, ptr %other.addr, align 8
  call void @_ZN4node6crypto12PBKDF2ConfigC1EOS1_(ptr noundef nonnull align 8 dereferenceable(80) %this1, ptr noundef nonnull align 8 dereferenceable(80) %1) #3
  store ptr %this1, ptr %retval, align 8
  br label %return

return:                                           ; preds = %if.end, %if.then
  %2 = load ptr, ptr %retval, align 8
  ret ptr %2
}